; Function Attrs: nounwind uwtable
define internal noundef ptr @readline_remove_history_item(ptr readnone captures(none) %0, ptr noundef %1) #0 {
  %3 = tail call i32 @PyLong_AsInt(ptr noundef %1) #14
  %4 = icmp eq i32 %3, -1
  br i1 %4, label %15, label %.split

.split:                                           ; preds = %2
  %5 = icmp slt i32 %3, 0
  br i1 %5, label %6, label %8

6:                                                ; preds = %.split
  %7 = load ptr, ptr @PyExc_ValueError, align 8, !tbaa !41
  tail call void @PyErr_SetString(ptr noundef %7, ptr noundef nonnull @.str.40) #14
  br label %readline_remove_history_item_impl.exit

8:                                                ; preds = %.split
  %9 = tail call ptr @remove_history(i32 noundef %3) #14
  %.not.i = icmp eq ptr %9, null
  br i1 %.not.i, label %10, label %13

10:                                               ; preds = %8
  %11 = load ptr, ptr @PyExc_ValueError, align 8, !tbaa !41
  %12 = tail call ptr (ptr, ptr, ...) @PyErr_Format(ptr noundef %11, ptr noundef nonnull @.str.41, i32 noundef %3) #14
  br label %readline_remove_history_item_impl.exit

13:                                               ; preds = %8
  %14 = tail call ptr @free_history_entry(ptr noundef nonnull %9) #14
  tail call void @free(ptr noundef %14) #14
  br label %readline_remove_history_item_impl.exit

15:                                               ; preds = %2
  %16 = tail call ptr @PyErr_Occurred() #14
  %.not = icmp eq ptr %16, null
  br i1 %.not, label %.split4, label %readline_remove_history_item_impl.exit

.split4:                                          ; preds = %15
  %17 = load ptr, ptr @PyExc_ValueError, align 8, !tbaa !41
  tail call void @PyErr_SetString(ptr noundef %17, ptr noundef nonnull @.str.40) #14
  br label %readline_remove_history_item_impl.exit

readline_remove_history_item_impl.exit:           ; preds = %13, %10, %6, %.split4, %15
  %.0 = phi ptr [ null, %15 ], [ null, %.split4 ], [ null, %6 ], [ @_Py_NoneStruct, %13 ], [ null, %10 ]
  ret ptr %.0
}